(dp0
S'wine_glass'
p1
S'https://zulip.com/static/third/gemoji/images/emoji/wine_glass.png'
p2
sS'rabbit'
p3
S'https://zulip.com/static/third/gemoji/images/emoji/rabbit.png'
p4
sS'european_post_office'
p5
S'https://zulip.com/static/third/gemoji/images/emoji/european_post_office.png'
p6
sS'tram'
p7
S'https://zulip.com/static/third/gemoji/images/emoji/tram.png'
p8
sS'department_store'
p9
S'https://zulip.com/static/third/gemoji/images/emoji/department_store.png'
p10
sS'alien'
p11
S'https://zulip.com/static/third/gemoji/images/emoji/alien.png'
p12
sS'baby'
p13
S'https://zulip.com/static/third/gemoji/images/emoji/baby.png'
p14
sS'foggy'
p15
S'https://zulip.com/static/third/gemoji/images/emoji/foggy.png'
p16
sS'white_square_button'
p17
S'https://zulip.com/static/third/gemoji/images/emoji/white_square_button.png'
p18
sS'maple_leaf'
p19
S'https://zulip.com/static/third/gemoji/images/emoji/maple_leaf.png'
p20
sS'no_bicycles'
p21
S'https://zulip.com/static/third/gemoji/images/emoji/no_bicycles.png'
p22
sS'man_with_gua_pi_mao'
p23
S'https://zulip.com/static/third/gemoji/images/emoji/man_with_gua_pi_mao.png'
p24
sS'anguished'
p25
S'https://zulip.com/static/third/gemoji/images/emoji/anguished.png'
p26
sS'waxing_gibbous_moon'
p27
S'https://zulip.com/static/third/gemoji/images/emoji/waxing_gibbous_moon.png'
p28
sS'rotating_light'
p29
S'https://zulip.com/static/third/gemoji/images/emoji/rotating_light.png'
p30
sS'part_alternation_mark'
p31
S'https://zulip.com/static/third/gemoji/images/emoji/part_alternation_mark.png'
p32
sS'bike'
p33
S'https://zulip.com/static/third/gemoji/images/emoji/bike.png'
p34
sS'mountain_cableway'
p35
S'https://zulip.com/static/third/gemoji/images/emoji/mountain_cableway.png'
p36
sS'recycle'
p37
S'https://zulip.com/static/third/gemoji/images/emoji/recycle.png'
p38
sS'smile'
p39
S'https://zulip.com/static/third/gemoji/images/emoji/smile.png'
p40
sS'large_blue_circle'
p41
S'https://zulip.com/static/third/gemoji/images/emoji/large_blue_circle.png'
p42
sS'persevere'
p43
S'https://zulip.com/static/third/gemoji/images/emoji/persevere.png'
p44
sS'sound'
p45
S'https://zulip.com/static/third/gemoji/images/emoji/sound.png'
p46
sS'fax'
p47
S'https://zulip.com/static/third/gemoji/images/emoji/fax.png'
p48
sS'woman'
p49
S'https://zulip.com/static/third/gemoji/images/emoji/woman.png'
p50
sS'eight_pointed_black_star'
p51
S'https://zulip.com/static/third/gemoji/images/emoji/eight_pointed_black_star.png'
p52
sS'dollar'
p53
S'https://zulip.com/static/third/gemoji/images/emoji/dollar.png'
p54
sS'trident'
p55
S'https://zulip.com/static/third/gemoji/images/emoji/trident.png'
p56
sS'oncoming_automobile'
p57
S'https://zulip.com/static/third/gemoji/images/emoji/oncoming_automobile.png'
p58
sS'wave'
p59
S'https://zulip.com/static/third/gemoji/images/emoji/wave.png'
p60
sS'ticket'
p61
S'https://zulip.com/static/third/gemoji/images/emoji/ticket.png'
p62
sS'ramen'
p63
S'https://zulip.com/static/third/gemoji/images/emoji/ramen.png'
p64
sS'twisted_rightwards_arrows'
p65
S'https://zulip.com/static/third/gemoji/images/emoji/twisted_rightwards_arrows.png'
p66
sS'cool'
p67
S'https://zulip.com/static/third/gemoji/images/emoji/cool.png'
p68
sS'four'
p69
S'https://zulip.com/static/third/gemoji/images/emoji/four.png'
p70
sS'school'
p71
S'https://zulip.com/static/third/gemoji/images/emoji/school.png'
p72
sS'high_brightness'
p73
S'https://zulip.com/static/third/gemoji/images/emoji/high_brightness.png'
p74
sS'crocodile'
p75
S'https://zulip.com/static/third/gemoji/images/emoji/crocodile.png'
p76
sS'deciduous_tree'
p77
S'https://zulip.com/static/third/gemoji/images/emoji/deciduous_tree.png'
p78
sS'notes'
p79
S'https://zulip.com/static/third/gemoji/images/emoji/notes.png'
p80
sS'white_flower'
p81
S'https://zulip.com/static/third/gemoji/images/emoji/white_flower.png'
p82
sS'gun'
p83
S'https://zulip.com/static/third/gemoji/images/emoji/gun.png'
p84
sS'couple_with_heart'
p85
S'https://zulip.com/static/third/gemoji/images/emoji/couple_with_heart.png'
p86
sS'video_game'
p87
S'https://zulip.com/static/third/gemoji/images/emoji/video_game.png'
p88
sS'saxophone'
p89
S'https://zulip.com/static/third/gemoji/images/emoji/saxophone.png'
p90
sS'notebook_with_decorative_cover'
p91
S'https://zulip.com/static/third/gemoji/images/emoji/notebook_with_decorative_cover.png'
p92
sS'triumph'
p93
S'https://zulip.com/static/third/gemoji/images/emoji/triumph.png'
p94
sS'tea'
p95
S'https://zulip.com/static/third/gemoji/images/emoji/tea.png'
p96
sS'scorpius'
p97
S'https://zulip.com/static/third/gemoji/images/emoji/scorpius.png'
p98
sS'suspension_railway'
p99
S'https://zulip.com/static/third/gemoji/images/emoji/suspension_railway.png'
p100
sS'arrow_left'
p101
S'https://zulip.com/static/third/gemoji/images/emoji/arrow_left.png'
p102
sS'zero'
p103
S'https://zulip.com/static/third/gemoji/images/emoji/zero.png'
p104
sS'small_orange_diamond'
p105
S'https://zulip.com/static/third/gemoji/images/emoji/small_orange_diamond.png'
p106
sS'hankey'
p107
S'https://zulip.com/static/third/gemoji/images/emoji/hankey.png'
p108
sS'cactus'
p109
S'https://zulip.com/static/third/gemoji/images/emoji/cactus.png'
p110
sS'spaghetti'
p111
S'https://zulip.com/static/third/gemoji/images/emoji/spaghetti.png'
p112
sS'monorail'
p113
S'https://zulip.com/static/third/gemoji/images/emoji/monorail.png'
p114
sS'ribbon'
p115
S'https://zulip.com/static/third/gemoji/images/emoji/ribbon.png'
p116
sS'mega'
p117
S'https://zulip.com/static/third/gemoji/images/emoji/mega.png'
p118
sS'abc'
p119
S'https://zulip.com/static/third/gemoji/images/emoji/abc.png'
p120
sS'hocho'
p121
S'https://zulip.com/static/third/gemoji/images/emoji/hocho.png'
p122
sS'purple_heart'
p123
S'https://zulip.com/static/third/gemoji/images/emoji/purple_heart.png'
p124
sS'love_letter'
p125
S'https://zulip.com/static/third/gemoji/images/emoji/love_letter.png'
p126
sS'file_folder'
p127
S'https://zulip.com/static/third/gemoji/images/emoji/file_folder.png'
p128
sS'clipboard'
p129
S'https://zulip.com/static/third/gemoji/images/emoji/clipboard.png'
p130
sS'baby_bottle'
p131
S'https://zulip.com/static/third/gemoji/images/emoji/baby_bottle.png'
p132
sS'new'
p133
S'https://zulip.com/static/third/gemoji/images/emoji/new.png'
p134
sS'bird'
p135
S'https://zulip.com/static/third/gemoji/images/emoji/bird.png'
p136
sS'smiling_imp'
p137
S'https://zulip.com/static/third/gemoji/images/emoji/smiling_imp.png'
p138
sS'hash'
p139
S'https://zulip.com/static/third/gemoji/images/emoji/hash.png'
p140
sS'curry'
p141
S'https://zulip.com/static/third/gemoji/images/emoji/curry.png'
p142
sS'card_index'
p143
S'https://zulip.com/static/third/gemoji/images/emoji/card_index.png'
p144
sS'pouting_cat'
p145
S'https://zulip.com/static/third/gemoji/images/emoji/pouting_cat.png'
p146
sS'punch'
p147
S'https://zulip.com/static/third/gemoji/images/emoji/punch.png'
p148
sS'blue_heart'
p149
S'https://zulip.com/static/third/gemoji/images/emoji/blue_heart.png'
p150
sS'house_with_garden'
p151
S'https://zulip.com/static/third/gemoji/images/emoji/house_with_garden.png'
p152
sS'baseball'
p153
S'https://zulip.com/static/third/gemoji/images/emoji/baseball.png'
p154
sS'busstop'
p155
S'https://zulip.com/static/third/gemoji/images/emoji/busstop.png'
p156
sS'new_moon'
p157
S'https://zulip.com/static/third/gemoji/images/emoji/new_moon.png'
p158
sS'thumbsup'
p159
S'https://zulip.com/static/third/gemoji/images/emoji/thumbsup.png'
p160
sS'boy'
p161
S'https://zulip.com/static/third/gemoji/images/emoji/boy.png'
p162
sS'raised_hands'
p163
S'https://zulip.com/static/third/gemoji/images/emoji/raised_hands.png'
p164
sS'arrow_right'
p165
S'https://zulip.com/static/third/gemoji/images/emoji/arrow_right.png'
p166
sS'see_no_evil'
p167
S'https://zulip.com/static/third/gemoji/images/emoji/see_no_evil.png'
p168
sS'metro'
p169
S'https://zulip.com/static/third/gemoji/images/emoji/metro.png'
p170
sS'leaves'
p171
S'https://zulip.com/static/third/gemoji/images/emoji/leaves.png'
p172
sS'heavy_plus_sign'
p173
S'https://zulip.com/static/third/gemoji/images/emoji/heavy_plus_sign.png'
p174
sS'roller_coaster'
p175
S'https://zulip.com/static/third/gemoji/images/emoji/roller_coaster.png'
p176
sS'thought_balloon'
p177
S'https://zulip.com/static/third/gemoji/images/emoji/thought_balloon.png'
p178
sS'name_badge'
p179
S'https://zulip.com/static/third/gemoji/images/emoji/name_badge.png'
p180
sS'dragon_face'
p181
S'https://zulip.com/static/third/gemoji/images/emoji/dragon_face.png'
p182
sS'light_rail'
p183
S'https://zulip.com/static/third/gemoji/images/emoji/light_rail.png'
p184
sS'open_hands'
p185
S'https://zulip.com/static/third/gemoji/images/emoji/open_hands.png'
p186
sS'cookie'
p187
S'https://zulip.com/static/third/gemoji/images/emoji/cookie.png'
p188
sS'massage'
p189
S'https://zulip.com/static/third/gemoji/images/emoji/massage.png'
p190
sS'children_crossing'
p191
S'https://zulip.com/static/third/gemoji/images/emoji/children_crossing.png'
p192
sS'apple'
p193
S'https://zulip.com/static/third/gemoji/images/emoji/apple.png'
p194
sS'family'
p195
S'https://zulip.com/static/third/gemoji/images/emoji/family.png'
p196
sS'rice_cracker'
p197
S'https://zulip.com/static/third/gemoji/images/emoji/rice_cracker.png'
p198
sS'mount_fuji'
p199
S'https://zulip.com/static/third/gemoji/images/emoji/mount_fuji.png'
p200
sS'keycap_ten'
p201
S'https://zulip.com/static/third/gemoji/images/emoji/keycap_ten.png'
p202
sS'green_heart'
p203
S'https://zulip.com/static/third/gemoji/images/emoji/green_heart.png'
p204
sS'mahjong'
p205
S'https://zulip.com/static/third/gemoji/images/emoji/mahjong.png'
p206
sS'tired_face'
p207
S'https://zulip.com/static/third/gemoji/images/emoji/tired_face.png'
p208
sS'carousel_horse'
p209
S'https://zulip.com/static/third/gemoji/images/emoji/carousel_horse.png'
p210
sS'honey_pot'
p211
S'https://zulip.com/static/third/gemoji/images/emoji/honey_pot.png'
p212
sS'red_car'
p213
S'https://zulip.com/static/third/gemoji/images/emoji/red_car.png'
p214
sS'sake'
p215
S'https://zulip.com/static/third/gemoji/images/emoji/sake.png'
p216
sS'confounded'
p217
S'https://zulip.com/static/third/gemoji/images/emoji/confounded.png'
p218
sS'angry'
p219
S'https://zulip.com/static/third/gemoji/images/emoji/angry.png'
p220
sS'poodle'
p221
S'https://zulip.com/static/third/gemoji/images/emoji/poodle.png'
p222
sS'red_circle'
p223
S'https://zulip.com/static/third/gemoji/images/emoji/red_circle.png'
p224
sS'princess'
p225
S'https://zulip.com/static/third/gemoji/images/emoji/princess.png'
p226
sS'camera'
p227
S'https://zulip.com/static/third/gemoji/images/emoji/camera.png'
p228
sS'crescent_moon'
p229
S'https://zulip.com/static/third/gemoji/images/emoji/crescent_moon.png'
p230
sS'sweat_smile'
p231
S'https://zulip.com/static/third/gemoji/images/emoji/sweat_smile.png'
p232
sS'aries'
p233
S'https://zulip.com/static/third/gemoji/images/emoji/aries.png'
p234
sS'ear_of_rice'
p235
S'https://zulip.com/static/third/gemoji/images/emoji/ear_of_rice.png'
p236
sS'video_camera'
p237
S'https://zulip.com/static/third/gemoji/images/emoji/video_camera.png'
p238
sS'hackerschool'
p239
S'https://external-content.zulipcdn.net/1fd50dd9cd66190492ee5c1f         3c82b49a5f6fdf45/687474703a2f2f7765622e6d69742e6564752f6a657373746573732f7777772f7265616c6d656d6f         6a692f6861636b65727363686f6f6c2e706e67'
p240
sS'chestnut'
p241
S'https://zulip.com/static/third/gemoji/images/emoji/chestnut.png'
p242
sS'pencil'
p243
S'https://zulip.com/static/third/gemoji/images/emoji/pencil.png'
p244
sS'guardsman'
p245
S'https://zulip.com/static/third/gemoji/images/emoji/guardsman.png'
p246
sS'door'
p247
S'https://zulip.com/static/third/gemoji/images/emoji/door.png'
p248
sS'mountain_bicyclist'
p249
S'https://zulip.com/static/third/gemoji/images/emoji/mountain_bicyclist.png'
p250
sS'envelope'
p251
S'https://zulip.com/static/third/gemoji/images/emoji/envelope.png'
p252
sS'money_with_wings'
p253
S'https://zulip.com/static/third/gemoji/images/emoji/money_with_wings.png'
p254
sS'melon'
p255
S'https://zulip.com/static/third/gemoji/images/emoji/melon.png'
p256
sS'train'
p257
S'https://zulip.com/static/third/gemoji/images/emoji/train.png'
p258
sS'beers'
p259
S'https://zulip.com/static/third/gemoji/images/emoji/beers.png'
p260
sS'water_buffalo'
p261
S'https://zulip.com/static/third/gemoji/images/emoji/water_buffalo.png'
p262
sS'first_quarter_moon_with_face'
p263
S'https://zulip.com/static/third/gemoji/images/emoji/first_quarter_moon_with_face.png'
p264
sS'mailbox_closed'
p265
S'https://zulip.com/static/third/gemoji/images/emoji/mailbox_closed.png'
p266
sS'curly_loop'
p267
S'https://zulip.com/static/third/gemoji/images/emoji/curly_loop.png'
p268
sS'rooster'
p269
S'https://zulip.com/static/third/gemoji/images/emoji/rooster.png'
p270
sS'pouch'
p271
S'https://zulip.com/static/third/gemoji/images/emoji/pouch.png'
p272
sS'jack_o_lantern'
p273
S'https://zulip.com/static/third/gemoji/images/emoji/jack_o_lantern.png'
p274
sS'izakaya_lantern'
p275
S'https://zulip.com/static/third/gemoji/images/emoji/izakaya_lantern.png'
p276
sS'palm_tree'
p277
S'https://zulip.com/static/third/gemoji/images/emoji/palm_tree.png'
p278
sS'car'
p279
S'https://zulip.com/static/third/gemoji/images/emoji/car.png'
p280
sS'cat'
p281
S'https://zulip.com/static/third/gemoji/images/emoji/cat.png'
p282
sS'nine'
p283
S'https://zulip.com/static/third/gemoji/images/emoji/nine.png'
p284
sS'chocolate_bar'
p285
S'https://zulip.com/static/third/gemoji/images/emoji/chocolate_bar.png'
p286
sS'running_shirt_with_sash'
p287
S'https://zulip.com/static/third/gemoji/images/emoji/running_shirt_with_sash.png'
p288
sS'capital_abcd'
p289
S'https://zulip.com/static/third/gemoji/images/emoji/capital_abcd.png'
p290
sS'put_litter_in_its_place'
p291
S'https://zulip.com/static/third/gemoji/images/emoji/put_litter_in_its_place.png'
p292
sS'game_die'
p293
S'https://zulip.com/static/third/gemoji/images/emoji/game_die.png'
p294
sS'abcd'
p295
S'https://zulip.com/static/third/gemoji/images/emoji/abcd.png'
p296
sS'heart'
p297
S'https://zulip.com/static/third/gemoji/images/emoji/heart.png'
p298
sS'chart_with_upwards_trend'
p299
S'https://zulip.com/static/third/gemoji/images/emoji/chart_with_upwards_trend.png'
p300
sS'atm'
p301
S'https://zulip.com/static/third/gemoji/images/emoji/atm.png'
p302
sS'hamburger'
p303
S'https://zulip.com/static/third/gemoji/images/emoji/hamburger.png'
p304
sS'pushpin'
p305
S'https://zulip.com/static/third/gemoji/images/emoji/pushpin.png'
p306
sS'lock'
p307
S'https://zulip.com/static/third/gemoji/images/emoji/lock.png'
p308
sS'dolphin'
p309
S'https://zulip.com/static/third/gemoji/images/emoji/dolphin.png'
p310
sS'confused'
p311
S'https://zulip.com/static/third/gemoji/images/emoji/confused.png'
p312
sS'accept'
p313
S'https://zulip.com/static/third/gemoji/images/emoji/accept.png'
p314
sS'collision'
p315
S'https://zulip.com/static/third/gemoji/images/emoji/collision.png'
p316
sS'pig2'
p317
S'https://zulip.com/static/third/gemoji/images/emoji/pig2.png'
p318
sS'white_medium_small_square'
p319
S'https://zulip.com/static/third/gemoji/images/emoji/white_medium_small_square.png'
p320
sS'sunglasses'
p321
S'https://zulip.com/static/third/gemoji/images/emoji/sunglasses.png'
p322
sS'airplane'
p323
S'https://zulip.com/static/third/gemoji/images/emoji/airplane.png'
p324
sS'dress'
p325
S'https://zulip.com/static/third/gemoji/images/emoji/dress.png'
p326
sS'bow'
p327
S'https://zulip.com/static/third/gemoji/images/emoji/bow.png'
p328
sS'kissing_closed_eyes'
p329
S'https://zulip.com/static/third/gemoji/images/emoji/kissing_closed_eyes.png'
p330
sS'earth_americas'
p331
S'https://zulip.com/static/third/gemoji/images/emoji/earth_americas.png'
p332
sS'end'
p333
S'https://zulip.com/static/third/gemoji/images/emoji/end.png'
p334
sS'sailboat'
p335
S'https://zulip.com/static/third/gemoji/images/emoji/sailboat.png'
p336
sS'speedboat'
p337
S'https://zulip.com/static/third/gemoji/images/emoji/speedboat.png'
p338
sS'six'
p339
S'https://zulip.com/static/third/gemoji/images/emoji/six.png'
p340
sS'ledger'
p341
S'https://zulip.com/static/third/gemoji/images/emoji/ledger.png'
p342
sS'leftwards_arrow_with_hook'
p343
S'https://zulip.com/static/third/gemoji/images/emoji/leftwards_arrow_with_hook.png'
p344
sS'elephant'
p345
S'https://zulip.com/static/third/gemoji/images/emoji/elephant.png'
p346
sS'underage'
p347
S'https://zulip.com/static/third/gemoji/images/emoji/underage.png'
p348
sS'earth_asia'
p349
S'https://zulip.com/static/third/gemoji/images/emoji/earth_asia.png'
p350
sS'goat'
p351
S'https://zulip.com/static/third/gemoji/images/emoji/goat.png'
p352
sS'pizza'
p353
S'https://zulip.com/static/third/gemoji/images/emoji/pizza.png'
p354
sS'heavy_check_mark'
p355
S'https://zulip.com/static/third/gemoji/images/emoji/heavy_check_mark.png'
p356
sS'open_book'
p357
S'https://zulip.com/static/third/gemoji/images/emoji/open_book.png'
p358
sS'briefcase'
p359
S'https://zulip.com/static/third/gemoji/images/emoji/briefcase.png'
p360
sS'disappointed_relieved'
p361
S'https://zulip.com/static/third/gemoji/images/emoji/disappointed_relieved.png'
p362
sS'sunny'
p363
S'https://zulip.com/static/third/gemoji/images/emoji/sunny.png'
p364
sS'customs'
p365
S'https://zulip.com/static/third/gemoji/images/emoji/customs.png'
p366
sS'santa'
p367
S'https://zulip.com/static/third/gemoji/images/emoji/santa.png'
p368
sS'fork_and_knife'
p369
S'https://zulip.com/static/third/gemoji/images/emoji/fork_and_knife.png'
p370
sS'birthday'
p371
S'https://zulip.com/static/third/gemoji/images/emoji/birthday.png'
p372
sS'fast_forward'
p373
S'https://zulip.com/static/third/gemoji/images/emoji/fast_forward.png'
p374
sS'heartpulse'
p375
S'https://zulip.com/static/third/gemoji/images/emoji/heartpulse.png'
p376
sS'mag'
p377
S'https://zulip.com/static/third/gemoji/images/emoji/mag.png'
p378
sS'date'
p379
S'https://zulip.com/static/third/gemoji/images/emoji/date.png'
p380
sS'cow2'
p381
S'https://zulip.com/static/third/gemoji/images/emoji/cow2.png'
p382
sS'man'
p383
S'https://zulip.com/static/third/gemoji/images/emoji/man.png'
p384
sS'tomato'
p385
S'https://zulip.com/static/third/gemoji/images/emoji/tomato.png'
p386
sS'octopus'
p387
S'https://zulip.com/static/third/gemoji/images/emoji/octopus.png'
p388
sS'wheelchair'
p389
S'https://zulip.com/static/third/gemoji/images/emoji/wheelchair.png'
p390
sS'dragon'
p391
S'https://zulip.com/static/third/gemoji/images/emoji/dragon.png'
p392
sS'wink'
p393
S'https://zulip.com/static/third/gemoji/images/emoji/wink.png'
p394
sS'truck'
p395
S'https://zulip.com/static/third/gemoji/images/emoji/truck.png'
p396
sS'wrench'
p397
S'https://zulip.com/static/third/gemoji/images/emoji/wrench.png'
p398
sS'ambulance'
p399
S'https://zulip.com/static/third/gemoji/images/emoji/ambulance.png'
p400
sS'point_up_2'
p401
S'https://zulip.com/static/third/gemoji/images/emoji/point_up_2.png'
p402
sS'egg'
p403
S'https://zulip.com/static/third/gemoji/images/emoji/egg.png'
p404
sS'small_red_triangle'
p405
S'https://zulip.com/static/third/gemoji/images/emoji/small_red_triangle.png'
p406
sS'office'
p407
S'https://zulip.com/static/third/gemoji/images/emoji/office.png'
p408
sS'mute'
p409
S'https://zulip.com/static/third/gemoji/images/emoji/mute.png'
p410
sS'clapper'
p411
S'https://zulip.com/static/third/gemoji/images/emoji/clapper.png'
p412
sS'haircut'
p413
S'https://zulip.com/static/third/gemoji/images/emoji/haircut.png'
p414
sS'satisfied'
p415
S'https://zulip.com/static/third/gemoji/images/emoji/satisfied.png'
p416
sS'symbols'
p417
S'https://zulip.com/static/third/gemoji/images/emoji/symbols.png'
p418
sS'sob'
p419
S'https://zulip.com/static/third/gemoji/images/emoji/sob.png'
p420
sS'wolf'
p421
S'https://zulip.com/static/third/gemoji/images/emoji/wolf.png'
p422
sS'japan'
p423
S'https://zulip.com/static/third/gemoji/images/emoji/japan.png'
p424
sS'post_office'
p425
S'https://zulip.com/static/third/gemoji/images/emoji/post_office.png'
p426
sS'last_quarter_moon_with_face'
p427
S'https://zulip.com/static/third/gemoji/images/emoji/last_quarter_moon_with_face.png'
p428
sS'railway_car'
p429
S'https://zulip.com/static/third/gemoji/images/emoji/railway_car.png'
p430
sS'pray'
p431
S'https://zulip.com/static/third/gemoji/images/emoji/pray.png'
p432
sS'dizzy_face'
p433
S'https://zulip.com/static/third/gemoji/images/emoji/dizzy_face.png'
p434
sS'revolving_hearts'
p435
S'https://zulip.com/static/third/gemoji/images/emoji/revolving_hearts.png'
p436
sS'currency_exchange'
p437
S'https://zulip.com/static/third/gemoji/images/emoji/currency_exchange.png'
p438
sS'paperclip'
p439
S'https://zulip.com/static/third/gemoji/images/emoji/paperclip.png'
p440
sS'moneybag'
p441
S'https://zulip.com/static/third/gemoji/images/emoji/moneybag.png'
p442
sS'mailbox_with_no_mail'
p443
S'https://zulip.com/static/third/gemoji/images/emoji/mailbox_with_no_mail.png'
p444
sS'soccer'
p445
S'https://zulip.com/static/third/gemoji/images/emoji/soccer.png'
p446
sS'dolls'
p447
S'https://zulip.com/static/third/gemoji/images/emoji/dolls.png'
p448
sS'poop'
p449
S'https://zulip.com/static/third/gemoji/images/emoji/poop.png'
p450
sS'coffee'
p451
S'https://zulip.com/static/third/gemoji/images/emoji/coffee.png'
p452
sS'tiger2'
p453
S'https://zulip.com/static/third/gemoji/images/emoji/tiger2.png'
p454
sS'no_entry'
p455
S'https://zulip.com/static/third/gemoji/images/emoji/no_entry.png'
p456
sS'neutral_face'
p457
S'https://zulip.com/static/third/gemoji/images/emoji/neutral_face.png'
p458
sS'rewind'
p459
S'https://zulip.com/static/third/gemoji/images/emoji/rewind.png'
p460
sS'open_mouth'
p461
S'https://zulip.com/static/third/gemoji/images/emoji/open_mouth.png'
p462
sS'bar_chart'
p463
S'https://zulip.com/static/third/gemoji/images/emoji/bar_chart.png'
p464
sS'european_castle'
p465
S'https://zulip.com/static/third/gemoji/images/emoji/european_castle.png'
p466
sS'page_with_curl'
p467
S'https://zulip.com/static/third/gemoji/images/emoji/page_with_curl.png'
p468
sS'monkey_face'
p469
S'https://zulip.com/static/third/gemoji/images/emoji/monkey_face.png'
p470
sS'snake'
p471
S'https://zulip.com/static/third/gemoji/images/emoji/snake.png'
p472
sS'kiss'
p473
S'https://zulip.com/static/third/gemoji/images/emoji/kiss.png'
p474
sS'blue_car'
p475
S'https://zulip.com/static/third/gemoji/images/emoji/blue_car.png'
p476
sS'confetti_ball'
p477
S'https://zulip.com/static/third/gemoji/images/emoji/confetti_ball.png'
p478
sS'bank'
p479
S'https://zulip.com/static/third/gemoji/images/emoji/bank.png'
p480
sS'bread'
p481
S'https://zulip.com/static/third/gemoji/images/emoji/bread.png'
p482
sS'rice_ball'
p483
S'https://zulip.com/static/third/gemoji/images/emoji/rice_ball.png'
p484
sS'oncoming_police_car'
p485
S'https://zulip.com/static/third/gemoji/images/emoji/oncoming_police_car.png'
p486
sS'capricorn'
p487
S'https://zulip.com/static/third/gemoji/images/emoji/capricorn.png'
p488
sS'trolleybus'
p489
S'https://zulip.com/static/third/gemoji/images/emoji/trolleybus.png'
p490
sS'tokyo_tower'
p491
S'https://zulip.com/static/third/gemoji/images/emoji/tokyo_tower.png'
p492
sS'fishing_pole_and_fish'
p493
S'https://zulip.com/static/third/gemoji/images/emoji/fishing_pole_and_fish.png'
p494
sS'repeat_one'
p495
S'https://zulip.com/static/third/gemoji/images/emoji/repeat_one.png'
p496
sS'bowling'
p497
S'https://zulip.com/static/third/gemoji/images/emoji/bowling.png'
p498
sS'volcano'
p499
S'https://zulip.com/static/third/gemoji/images/emoji/volcano.png'
p500
sS'older_woman'
p501
S'https://zulip.com/static/third/gemoji/images/emoji/older_woman.png'
p502
sS'smiley_cat'
p503
S'https://zulip.com/static/third/gemoji/images/emoji/smiley_cat.png'
p504
sS'lantern'
p505
S'https://zulip.com/static/third/gemoji/images/emoji/lantern.png'
p506
sS'information_source'
p507
S'https://zulip.com/static/third/gemoji/images/emoji/information_source.png'
p508
sS'no_smoking'
p509
S'https://zulip.com/static/third/gemoji/images/emoji/no_smoking.png'
p510
sS'telescope'
p511
S'https://zulip.com/static/third/gemoji/images/emoji/telescope.png'
p512
sS'beginner'
p513
S'https://zulip.com/static/third/gemoji/images/emoji/beginner.png'
p514
sS'postal_horn'
p515
S'https://zulip.com/static/third/gemoji/images/emoji/postal_horn.png'
p516
sS'house'
p517
S'https://zulip.com/static/third/gemoji/images/emoji/house.png'
p518
sS'fish'
p519
S'https://zulip.com/static/third/gemoji/images/emoji/fish.png'
p520
sS'construction_worker'
p521
S'https://zulip.com/static/third/gemoji/images/emoji/construction_worker.png'
p522
sS'mobile_phone_off'
p523
S'https://zulip.com/static/third/gemoji/images/emoji/mobile_phone_off.png'
p524
sS'unlock'
p525
S'https://zulip.com/static/third/gemoji/images/emoji/unlock.png'
p526
sS'books'
p527
S'https://zulip.com/static/third/gemoji/images/emoji/books.png'
p528
sS'sweet_potato'
p529
S'https://zulip.com/static/third/gemoji/images/emoji/sweet_potato.png'
p530
sS'beetle'
p531
S'https://zulip.com/static/third/gemoji/images/emoji/beetle.png'
p532
sS'lock_with_ink_pen'
p533
S'https://zulip.com/static/third/gemoji/images/emoji/lock_with_ink_pen.png'
p534
sS'8ball'
p535
S'https://zulip.com/static/third/gemoji/images/emoji/8ball.png'
p536
sS'worried'
p537
S'https://zulip.com/static/third/gemoji/images/emoji/worried.png'
p538
sS'sunrise'
p539
S'https://zulip.com/static/third/gemoji/images/emoji/sunrise.png'
p540
sS'exclamation'
p541
S'https://zulip.com/static/third/gemoji/images/emoji/exclamation.png'
p542
sS'no_good'
p543
S'https://zulip.com/static/third/gemoji/images/emoji/no_good.png'
p544
sS'cocktail'
p545
S'https://zulip.com/static/third/gemoji/images/emoji/cocktail.png'
p546
sS'swimmer'
p547
S'https://zulip.com/static/third/gemoji/images/emoji/swimmer.png'
p548
sS'stuck_out_tongue'
p549
S'https://zulip.com/static/third/gemoji/images/emoji/stuck_out_tongue.png'
p550
sS'factory'
p551
S'https://zulip.com/static/third/gemoji/images/emoji/factory.png'
p552
sS'baggage_claim'
p553
S'https://zulip.com/static/third/gemoji/images/emoji/baggage_claim.png'
p554
sS'cherry_blossom'
p555
S'https://zulip.com/static/third/gemoji/images/emoji/cherry_blossom.png'
p556
sS'sparkle'
p557
S'https://zulip.com/static/third/gemoji/images/emoji/sparkle.png'
p558
sS'fountain'
p559
S'https://zulip.com/static/third/gemoji/images/emoji/fountain.png'
p560
sS'zap'
p561
S'https://zulip.com/static/third/gemoji/images/emoji/zap.png'
p562
sS'cyclone'
p563
S'https://zulip.com/static/third/gemoji/images/emoji/cyclone.png'
p564
sS'point_left'
p565
S'https://zulip.com/static/third/gemoji/images/emoji/point_left.png'
p566
sS'blue_book'
p567
S'https://zulip.com/static/third/gemoji/images/emoji/blue_book.png'
p568
sS'dancers'
p569
S'https://zulip.com/static/third/gemoji/images/emoji/dancers.png'
p570
sS'flower_playing_cards'
p571
S'https://zulip.com/static/third/gemoji/images/emoji/flower_playing_cards.png'
p572
sS'umbrella'
p573
S'https://zulip.com/static/third/gemoji/images/emoji/umbrella.png'
p574
sS'hatching_chick'
p575
S'https://zulip.com/static/third/gemoji/images/emoji/hatching_chick.png'
p576
sS'free'
p577
S'https://zulip.com/static/third/gemoji/images/emoji/free.png'
p578
sS'traffic_light'
p579
S'https://zulip.com/static/third/gemoji/images/emoji/traffic_light.png'
p580
sS'grimacing'
p581
S'https://zulip.com/static/third/gemoji/images/emoji/grimacing.png'
p582
sS'bullettrain_side'
p583
S'https://zulip.com/static/third/gemoji/images/emoji/bullettrain_side.png'
p584
sS'poultry_leg'
p585
S'https://zulip.com/static/third/gemoji/images/emoji/poultry_leg.png'
p586
sS'grapes'
p587
S'https://zulip.com/static/third/gemoji/images/emoji/grapes.png'
p588
sS'smirk_cat'
p589
S'https://zulip.com/static/third/gemoji/images/emoji/smirk_cat.png'
p590
sS'diamond_shape_with_a_dot_inside'
p591
S'https://zulip.com/static/third/gemoji/images/emoji/diamond_shape_with_a_dot_inside.png'
p592
sS'musical_note'
p593
S'https://zulip.com/static/third/gemoji/images/emoji/musical_note.png'
p594
sS'high_heel'
p595
S'https://zulip.com/static/third/gemoji/images/emoji/high_heel.png'
p596
sS'black_medium_small_square'
p597
S'https://zulip.com/static/third/gemoji/images/emoji/black_medium_small_square.png'
p598
sS'green_book'
p599
S'https://zulip.com/static/third/gemoji/images/emoji/green_book.png'
p600
sS'headphones'
p601
S'https://zulip.com/static/third/gemoji/images/emoji/headphones.png'
p602
sS'sun_with_face'
p603
S'https://zulip.com/static/third/gemoji/images/emoji/sun_with_face.png'
p604
sS'passport_control'
p605
S'https://zulip.com/static/third/gemoji/images/emoji/passport_control.png'
p606
sS'bookmark'
p607
S'https://zulip.com/static/third/gemoji/images/emoji/bookmark.png'
p608
sS'small_blue_diamond'
p609
S'https://zulip.com/static/third/gemoji/images/emoji/small_blue_diamond.png'
p610
sS'yum'
p611
S'https://zulip.com/static/third/gemoji/images/emoji/yum.png'
p612
sS'closed_lock_with_key'
p613
S'https://zulip.com/static/third/gemoji/images/emoji/closed_lock_with_key.png'
p614
sS'heartbeat'
p615
S'https://zulip.com/static/third/gemoji/images/emoji/heartbeat.png'
p616
sS'blush'
p617
S'https://zulip.com/static/third/gemoji/images/emoji/blush.png'
p618
sS'ophiuchus'
p619
S'https://zulip.com/static/third/gemoji/images/emoji/ophiuchus.png'
p620
sS'bouquet'
p621
S'https://zulip.com/static/third/gemoji/images/emoji/bouquet.png'
p622
sS'fire_engine'
p623
S'https://zulip.com/static/third/gemoji/images/emoji/fire_engine.png'
p624
sS'one'
p625
S'https://zulip.com/static/third/gemoji/images/emoji/one.png'
p626
sS'feet'
p627
S'https://zulip.com/static/third/gemoji/images/emoji/feet.png'
p628
sS'sparkler'
p629
S'https://zulip.com/static/third/gemoji/images/emoji/sparkler.png'
p630
sS'sparkles'
p631
S'https://zulip.com/static/third/gemoji/images/emoji/sparkles.png'
p632
sS'scissors'
p633
S'https://zulip.com/static/third/gemoji/images/emoji/scissors.png'
p634
sS'ring'
p635
S'https://zulip.com/static/third/gemoji/images/emoji/ring.png'
p636
sS'slot_machine'
p637
S'https://zulip.com/static/third/gemoji/images/emoji/slot_machine.png'
p638
sS'point_right'
p639
S'https://zulip.com/static/third/gemoji/images/emoji/point_right.png'
p640
sS'sheep'
p641
S'https://zulip.com/static/third/gemoji/images/emoji/sheep.png'
p642
sS'horse'
p643
S'https://zulip.com/static/third/gemoji/images/emoji/horse.png'
p644
sS'basketball'
p645
S'https://zulip.com/static/third/gemoji/images/emoji/basketball.png'
p646
sS'monkey'
p647
S'https://zulip.com/static/third/gemoji/images/emoji/monkey.png'
p648
sS'blossom'
p649
S'https://zulip.com/static/third/gemoji/images/emoji/blossom.png'
p650
sS'gift_heart'
p651
S'https://zulip.com/static/third/gemoji/images/emoji/gift_heart.png'
p652
sS'top'
p653
S'https://zulip.com/static/third/gemoji/images/emoji/top.png'
p654
sS'station'
p655
S'https://zulip.com/static/third/gemoji/images/emoji/station.png'
p656
sS'euro'
p657
S'https://zulip.com/static/third/gemoji/images/emoji/euro.png'
p658
sS'banana'
p659
S'https://zulip.com/static/third/gemoji/images/emoji/banana.png'
p660
sS'shaved_ice'
p661
S'https://zulip.com/static/third/gemoji/images/emoji/shaved_ice.png'
p662
sS'eyes'
p663
S'https://zulip.com/static/third/gemoji/images/emoji/eyes.png'
p664
sS'shell'
p665
S'https://zulip.com/static/third/gemoji/images/emoji/shell.png'
p666
sS'relieved'
p667
S'https://zulip.com/static/third/gemoji/images/emoji/relieved.png'
p668
sS'memo'
p669
S'https://zulip.com/static/third/gemoji/images/emoji/memo.png'
p670
sS'hotel'
p671
S'https://zulip.com/static/third/gemoji/images/emoji/hotel.png'
p672
sS'small_red_triangle_down'
p673
S'https://zulip.com/static/third/gemoji/images/emoji/small_red_triangle_down.png'
p674
sS'crossed_flags'
p675
S'https://zulip.com/static/third/gemoji/images/emoji/crossed_flags.png'
p676
sS'nut_and_bolt'
p677
S'https://zulip.com/static/third/gemoji/images/emoji/nut_and_bolt.png'
p678
sS'aerial_tramway'
p679
S'https://zulip.com/static/third/gemoji/images/emoji/aerial_tramway.png'
p680
sS'sweat_drops'
p681
S'https://zulip.com/static/third/gemoji/images/emoji/sweat_drops.png'
p682
sS'panda_face'
p683
S'https://zulip.com/static/third/gemoji/images/emoji/panda_face.png'
p684
sS'minibus'
p685
S'https://zulip.com/static/third/gemoji/images/emoji/minibus.png'
p686
sS'unamused'
p687
S'https://zulip.com/static/third/gemoji/images/emoji/unamused.png'
p688
sS'evergreen_tree'
p689
S'https://zulip.com/static/third/gemoji/images/emoji/evergreen_tree.png'
p690
sS'paw_prints'
p691
S'https://zulip.com/static/third/gemoji/images/emoji/paw_prints.png'
p692
sS'bee'
p693
S'https://zulip.com/static/third/gemoji/images/emoji/bee.png'
p694
sS'scream_cat'
p695
S'https://zulip.com/static/third/gemoji/images/emoji/scream_cat.png'
p696
sS'smile_cat'
p697
S'https://zulip.com/static/third/gemoji/images/emoji/smile_cat.png'
p698
sS'hourglass_flowing_sand'
p699
S'https://zulip.com/static/third/gemoji/images/emoji/hourglass_flowing_sand.png'
p700
sS'round_pushpin'
p701
S'https://zulip.com/static/third/gemoji/images/emoji/round_pushpin.png'
p702
sS'tophat'
p703
S'https://zulip.com/static/third/gemoji/images/emoji/tophat.png'
p704
sS'six_pointed_star'
p705
S'https://zulip.com/static/third/gemoji/images/emoji/six_pointed_star.png'
p706
sS'dog2'
p707
S'https://zulip.com/static/third/gemoji/images/emoji/dog2.png'
p708
sS'grinning'
p709
S'https://zulip.com/static/third/gemoji/images/emoji/grinning.png'
p710
sS'tractor'
p711
S'https://zulip.com/static/third/gemoji/images/emoji/tractor.png'
p712
sS'crying_cat_face'
p713
S'https://zulip.com/static/third/gemoji/images/emoji/crying_cat_face.png'
p714
sS'angel'
p715
S'https://zulip.com/static/third/gemoji/images/emoji/angel.png'
p716
sS'nail_care'
p717
S'https://zulip.com/static/third/gemoji/images/emoji/nail_care.png'
p718
sS'runner'
p719
S'https://zulip.com/static/third/gemoji/images/emoji/runner.png'
p720
sS'parking'
p721
S'https://zulip.com/static/third/gemoji/images/emoji/parking.png'
p722
sS'notebook'
p723
S'https://zulip.com/static/third/gemoji/images/emoji/notebook.png'
p724
sS'dash'
p725
S'https://zulip.com/static/third/gemoji/images/emoji/dash.png'
p726
sS'rat'
p727
S'https://zulip.com/static/third/gemoji/images/emoji/rat.png'
p728
sS'information_desk_person'
p729
S'https://zulip.com/static/third/gemoji/images/emoji/information_desk_person.png'
p730
sS'anger'
p731
S'https://zulip.com/static/third/gemoji/images/emoji/anger.png'
p732
sS'mailbox_with_mail'
p733
S'https://zulip.com/static/third/gemoji/images/emoji/mailbox_with_mail.png'
p734
sS'milky_way'
p735
S'https://zulip.com/static/third/gemoji/images/emoji/milky_way.png'
p736
sS'pencil2'
p737
S'https://zulip.com/static/third/gemoji/images/emoji/pencil2.png'
p738
sS'microphone'
p739
S'https://zulip.com/static/third/gemoji/images/emoji/microphone.png'
p740
sS'koala'
p741
S'https://zulip.com/static/third/gemoji/images/emoji/koala.png'
p742
sS'necktie'
p743
S'https://zulip.com/static/third/gemoji/images/emoji/necktie.png'
p744
sS'tulip'
p745
S'https://zulip.com/static/third/gemoji/images/emoji/tulip.png'
p746
sS'kissing_cat'
p747
S'https://zulip.com/static/third/gemoji/images/emoji/kissing_cat.png'
p748
sS'globe_with_meridians'
p749
S'https://zulip.com/static/third/gemoji/images/emoji/globe_with_meridians.png'
p750
sS'registered'
p751
S'https://zulip.com/static/third/gemoji/images/emoji/registered.png'
p752
sS'loudspeaker'
p753
S'https://zulip.com/static/third/gemoji/images/emoji/loudspeaker.png'
p754
sS'crystal_ball'
p755
S'https://zulip.com/static/third/gemoji/images/emoji/crystal_ball.png'
p756
sS'koko'
p757
S'https://zulip.com/static/third/gemoji/images/emoji/koko.png'
p758
sS'chart'
p759
S'https://zulip.com/static/third/gemoji/images/emoji/chart.png'
p760
sS'credit_card'
p761
S'https://zulip.com/static/third/gemoji/images/emoji/credit_card.png'
p762
sS'checkered_flag'
p763
S'https://zulip.com/static/third/gemoji/images/emoji/checkered_flag.png'
p764
sS'eight'
p765
S'https://zulip.com/static/third/gemoji/images/emoji/eight.png'
p766
sS'handbag'
p767
S'https://zulip.com/static/third/gemoji/images/emoji/handbag.png'
p768
sS'pager'
p769
S'https://zulip.com/static/third/gemoji/images/emoji/pager.png'
p770
sS'arrows_clockwise'
p771
S'https://zulip.com/static/third/gemoji/images/emoji/arrows_clockwise.png'
p772
sS'ballot_box_with_check'
p773
S'https://zulip.com/static/third/gemoji/images/emoji/ballot_box_with_check.png'
p774
sS'fried_shrimp'
p775
S'https://zulip.com/static/third/gemoji/images/emoji/fried_shrimp.png'
p776
sS'mans_shoe'
p777
S'https://zulip.com/static/third/gemoji/images/emoji/mans_shoe.png'
p778
sS'bicyclist'
p779
S'https://zulip.com/static/third/gemoji/images/emoji/bicyclist.png'
p780
sS'dog'
p781
S'https://zulip.com/static/third/gemoji/images/emoji/dog.png'
p782
sS'new_moon_with_face'
p783
S'https://zulip.com/static/third/gemoji/images/emoji/new_moon_with_face.png'
p784
sS'ideograph_advantage'
p785
S'https://zulip.com/static/third/gemoji/images/emoji/ideograph_advantage.png'
p786
sS'heavy_exclamation_mark'
p787
S'https://zulip.com/static/third/gemoji/images/emoji/heavy_exclamation_mark.png'
p788
sS'link'
p789
S'https://zulip.com/static/third/gemoji/images/emoji/link.png'
p790
sS'scream'
p791
S'https://zulip.com/static/third/gemoji/images/emoji/scream.png'
p792
sS'speak_no_evil'
p793
S'https://zulip.com/static/third/gemoji/images/emoji/speak_no_evil.png'
p794
sS'walking'
p795
S'https://zulip.com/static/third/gemoji/images/emoji/walking.png'
p796
sS'bomb'
p797
S'https://zulip.com/static/third/gemoji/images/emoji/bomb.png'
p798
sS'imp'
p799
S'https://zulip.com/static/third/gemoji/images/emoji/imp.png'
p800
sS'minidisc'
p801
S'https://zulip.com/static/third/gemoji/images/emoji/minidisc.png'
p802
sS'horse_racing'
p803
S'https://zulip.com/static/third/gemoji/images/emoji/horse_racing.png'
p804
sS'radio'
p805
S'https://zulip.com/static/third/gemoji/images/emoji/radio.png'
p806
sS'shoe'
p807
S'https://zulip.com/static/third/gemoji/images/emoji/shoe.png'
p808
sS'point_down'
p809
S'https://zulip.com/static/third/gemoji/images/emoji/point_down.png'
p810
sS'chicken'
p811
S'https://zulip.com/static/third/gemoji/images/emoji/chicken.png'
p812
sS'copyright'
p813
S'https://zulip.com/static/third/gemoji/images/emoji/copyright.png'
p814
sS'arrow_lower_right'
p815
S'https://zulip.com/static/third/gemoji/images/emoji/arrow_lower_right.png'
p816
sS'city_sunset'
p817
S'https://zulip.com/static/third/gemoji/images/emoji/city_sunset.png'
p818
sS'yen'
p819
S'https://zulip.com/static/third/gemoji/images/emoji/yen.png'
p820
sS'waning_crescent_moon'
p821
S'https://zulip.com/static/third/gemoji/images/emoji/waning_crescent_moon.png'
p822
sS'cupid'
p823
S'https://zulip.com/static/third/gemoji/images/emoji/cupid.png'
p824
sS'mens'
p825
S'https://zulip.com/static/third/gemoji/images/emoji/mens.png'
p826
sS'virgo'
p827
S'https://zulip.com/static/third/gemoji/images/emoji/virgo.png'
p828
sS'libra'
p829
S'https://zulip.com/static/third/gemoji/images/emoji/libra.png'
p830
sS'busts_in_silhouette'
p831
S'https://zulip.com/static/third/gemoji/images/emoji/busts_in_silhouette.png'
p832
sS'two'
p833
S'https://zulip.com/static/third/gemoji/images/emoji/two.png'
p834
sS'rice'
p835
S'https://zulip.com/static/third/gemoji/images/emoji/rice.png'
p836
sS'alarm_clock'
p837
S'https://zulip.com/static/third/gemoji/images/emoji/alarm_clock.png'
p838
sS'couplekiss'
p839
S'https://zulip.com/static/third/gemoji/images/emoji/couplekiss.png'
p840
sS'sagittarius'
p841
S'https://zulip.com/static/third/gemoji/images/emoji/sagittarius.png'
p842
sS'electric_plug'
p843
S'https://zulip.com/static/third/gemoji/images/emoji/electric_plug.png'
p844
sS'circus_tent'
p845
S'https://zulip.com/static/third/gemoji/images/emoji/circus_tent.png'
p846
sS'watch'
p847
S'https://zulip.com/static/third/gemoji/images/emoji/watch.png'
p848
sS'bear'
p849
S'https://zulip.com/static/third/gemoji/images/emoji/bear.png'
p850
sS'soon'
p851
S'https://zulip.com/static/third/gemoji/images/emoji/soon.png'
p852
sS'frowning'
p853
S'https://zulip.com/static/third/gemoji/images/emoji/frowning.png'
p854
sS'incoming_envelope'
p855
S'https://zulip.com/static/third/gemoji/images/emoji/incoming_envelope.png'
p856
sS'watermelon'
p857
S'https://zulip.com/static/third/gemoji/images/emoji/watermelon.png'
p858
sS'wedding'
p859
S'https://zulip.com/static/third/gemoji/images/emoji/wedding.png'
p860
sS'yellow_heart'
p861
S'https://zulip.com/static/third/gemoji/images/emoji/yellow_heart.png'
p862
sS'no_mobile_phones'
p863
S'https://zulip.com/static/third/gemoji/images/emoji/no_mobile_phones.png'
p864
sS'herb'
p865
S'https://zulip.com/static/third/gemoji/images/emoji/herb.png'
p866
sS'negative_squared_cross_mark'
p867
S'https://zulip.com/static/third/gemoji/images/emoji/negative_squared_cross_mark.png'
p868
sS'smoking'
p869
S'https://zulip.com/static/third/gemoji/images/emoji/smoking.png'
p870
sS'cry'
p871
S'https://zulip.com/static/third/gemoji/images/emoji/cry.png'
p872
sS'calling'
p873
S'https://zulip.com/static/third/gemoji/images/emoji/calling.png'
p874
sS'microscope'
p875
S'https://zulip.com/static/third/gemoji/images/emoji/microscope.png'
p876
sS'interrobang'
p877
S'https://zulip.com/static/third/gemoji/images/emoji/interrobang.png'
p878
sS'japanese_ogre'
p879
S'https://zulip.com/static/third/gemoji/images/emoji/japanese_ogre.png'
p880
sS'fuelpump'
p881
S'https://zulip.com/static/third/gemoji/images/emoji/fuelpump.png'
p882
sS'oncoming_taxi'
p883
S'https://zulip.com/static/third/gemoji/images/emoji/oncoming_taxi.png'
p884
sS'man_with_turban'
p885
S'https://zulip.com/static/third/gemoji/images/emoji/man_with_turban.png'
p886
sS'arrow_up_small'
p887
S'https://zulip.com/static/third/gemoji/images/emoji/arrow_up_small.png'
p888
sS'art'
p889
S'https://zulip.com/static/third/gemoji/images/emoji/art.png'
p890
sS'hear_no_evil'
p891
S'https://zulip.com/static/third/gemoji/images/emoji/hear_no_evil.png'
p892
sS'convenience_store'
p893
S'https://zulip.com/static/third/gemoji/images/emoji/convenience_store.png'
p894
sS'seat'
p895
S'https://zulip.com/static/third/gemoji/images/emoji/seat.png'
p896
sS'computer'
p897
S'https://zulip.com/static/third/gemoji/images/emoji/computer.png'
p898
sS'arrow_down'
p899
S'https://zulip.com/static/third/gemoji/images/emoji/arrow_down.png'
p900
sS'vhs'
p901
S'https://zulip.com/static/third/gemoji/images/emoji/vhs.png'
p902
sS'bridge_at_night'
p903
S'https://zulip.com/static/third/gemoji/images/emoji/bridge_at_night.png'
p904
sS'pisces'
p905
S'https://zulip.com/static/third/gemoji/images/emoji/pisces.png'
p906
sS'calendar'
p907
S'https://zulip.com/static/third/gemoji/images/emoji/calendar.png'
p908
sS'hammer'
p909
S'https://zulip.com/static/third/gemoji/images/emoji/hammer.png'
p910
sS'hourglass'
p911
S'https://zulip.com/static/third/gemoji/images/emoji/hourglass.png'
p912
sS'hibiscus'
p913
S'https://zulip.com/static/third/gemoji/images/emoji/hibiscus.png'
p914
sS'shower'
p915
S'https://zulip.com/static/third/gemoji/images/emoji/shower.png'
p916
sS'black_joker'
p917
S'https://zulip.com/static/third/gemoji/images/emoji/black_joker.png'
p918
sS'ferris_wheel'
p919
S'https://zulip.com/static/third/gemoji/images/emoji/ferris_wheel.png'
p920
sS'raised_hand'
p921
S'https://zulip.com/static/third/gemoji/images/emoji/raised_hand.png'
p922
sS'no_mouth'
p923
S'https://zulip.com/static/third/gemoji/images/emoji/no_mouth.png'
p924
sS'postbox'
p925
S'https://zulip.com/static/third/gemoji/images/emoji/postbox.png'
p926
sS'large_blue_diamond'
p927
S'https://zulip.com/static/third/gemoji/images/emoji/large_blue_diamond.png'
p928
sS'cat2'
p929
S'https://zulip.com/static/third/gemoji/images/emoji/cat2.png'
p930
sS'icecream'
p931
S'https://zulip.com/static/third/gemoji/images/emoji/icecream.png'
p932
sS'diamonds'
p933
S'https://zulip.com/static/third/gemoji/images/emoji/diamonds.png'
p934
sS'email'
p935
S'https://zulip.com/static/third/gemoji/images/emoji/email.png'
p936
sS'older_man'
p937
S'https://zulip.com/static/third/gemoji/images/emoji/older_man.png'
p938
sS'tent'
p939
S'https://zulip.com/static/third/gemoji/images/emoji/tent.png'
p940
sS'raising_hand'
p941
S'https://zulip.com/static/third/gemoji/images/emoji/raising_hand.png'
p942
sS'joy'
p943
S'https://zulip.com/static/third/gemoji/images/emoji/joy.png'
p944
sS'moyai'
p945
S'https://zulip.com/static/third/gemoji/images/emoji/moyai.png'
p946
sS'aquarius'
p947
S'https://zulip.com/static/third/gemoji/images/emoji/aquarius.png'
p948
sS'weary'
p949
S'https://zulip.com/static/third/gemoji/images/emoji/weary.png'
p950
sS'guitar'
p951
S'https://zulip.com/static/third/gemoji/images/emoji/guitar.png'
p952
sS'four_leaf_clover'
p953
S'https://zulip.com/static/third/gemoji/images/emoji/four_leaf_clover.png'
p954
sS'key'
p955
S'https://zulip.com/static/third/gemoji/images/emoji/key.png'
p956
sS'mailbox'
p957
S'https://zulip.com/static/third/gemoji/images/emoji/mailbox.png'
p958
sS'black_square'
p959
S'https://zulip.com/static/third/gemoji/images/emoji/black_square.png'
p960
sS'sushi'
p961
S'https://zulip.com/static/third/gemoji/images/emoji/sushi.png'
p962
sS'cop'
p963
S'https://zulip.com/static/third/gemoji/images/emoji/cop.png'
p964
sS'tropical_drink'
p965
S'https://zulip.com/static/third/gemoji/images/emoji/tropical_drink.png'
p966
sS'cow'
p967
S'https://zulip.com/static/third/gemoji/images/emoji/cow.png'
p968
sS'restroom'
p969
S'https://zulip.com/static/third/gemoji/images/emoji/restroom.png'
p970
sS'white_large_square'
p971
S'https://zulip.com/static/third/gemoji/images/emoji/white_large_square.png'
p972
sS'eggplant'
p973
S'https://zulip.com/static/third/gemoji/images/emoji/eggplant.png'
p974
sS'flipper'
p975
S'https://zulip.com/static/third/gemoji/images/emoji/flipper.png'
p976
sS'low_brightness'
p977
S'https://zulip.com/static/third/gemoji/images/emoji/low_brightness.png'
p978
sS'ok_woman'
p979
S'https://zulip.com/static/third/gemoji/images/emoji/ok_woman.png'
p980
sS'space_invader'
p981
S'https://zulip.com/static/third/gemoji/images/emoji/space_invader.png'
p982
sS'pig_nose'
p983
S'https://zulip.com/static/third/gemoji/images/emoji/pig_nose.png'
p984
sS'cancer'
p985
S'https://zulip.com/static/third/gemoji/images/emoji/cancer.png'
p986
sS'bell'
p987
S'https://zulip.com/static/third/gemoji/images/emoji/bell.png'
p988
sS'battery'
p989
S'https://zulip.com/static/third/gemoji/images/emoji/battery.png'
p990
sS'jeans'
p991
S'https://zulip.com/static/third/gemoji/images/emoji/jeans.png'
p992
sS'leo'
p993
S'https://zulip.com/static/third/gemoji/images/emoji/leo.png'
p994
sS'dancer'
p995
S'https://zulip.com/static/third/gemoji/images/emoji/dancer.png'
p996
sS'page_facing_up'
p997
S'https://zulip.com/static/third/gemoji/images/emoji/page_facing_up.png'
p998
sS'church'
p999
S'https://zulip.com/static/third/gemoji/images/emoji/church.png'
p1000
sS'boar'
p1001
S'https://zulip.com/static/third/gemoji/images/emoji/boar.png'
p1002
sS'trumpet'
p1003
S'https://zulip.com/static/third/gemoji/images/emoji/trumpet.png'
p1004
sS'boat'
p1005
S'https://zulip.com/static/third/gemoji/images/emoji/boat.png'
p1006
sS'person_with_blond_hair'
p1007
S'https://zulip.com/static/third/gemoji/images/emoji/person_with_blond_hair.png'
p1008
sS'rugby_football'
p1009
S'https://zulip.com/static/third/gemoji/images/emoji/rugby_football.png'
p1010
sS'wavy_dash'
p1011
S'https://zulip.com/static/third/gemoji/images/emoji/wavy_dash.png'
p1012
sS'three'
p1013
S'https://zulip.com/static/third/gemoji/images/emoji/three.png'
p1014
sS'statue_of_liberty'
p1015
S'https://zulip.com/static/third/gemoji/images/emoji/statue_of_liberty.png'
p1016
sS'oden'
p1017
S'https://zulip.com/static/third/gemoji/images/emoji/oden.png'
p1018
sS'beer'
p1019
S'https://zulip.com/static/third/gemoji/images/emoji/beer.png'
p1020
sS'stuck_out_tongue_closed_eyes'
p1021
S'https://zulip.com/static/third/gemoji/images/emoji/stuck_out_tongue_closed_eyes.png'
p1022
sS'helicopter'
p1023
S'https://zulip.com/static/third/gemoji/images/emoji/helicopter.png'
p1024
sS'heavy_division_sign'
p1025
S'https://zulip.com/static/third/gemoji/images/emoji/heavy_division_sign.png'
p1026
sS'ram'
p1027
S'https://zulip.com/static/third/gemoji/images/emoji/ram.png'
p1028
sS'performing_arts'
p1029
S'https://zulip.com/static/third/gemoji/images/emoji/performing_arts.png'
p1030
sS'mushroom'
p1031
S'https://zulip.com/static/third/gemoji/images/emoji/mushroom.png'
p1032
sS'fire'
p1033
S'https://zulip.com/static/third/gemoji/images/emoji/fire.png'
p1034
sS'two_hearts'
p1035
S'https://zulip.com/static/third/gemoji/images/emoji/two_hearts.png'
p1036
sS'tiger'
p1037
S'https://zulip.com/static/third/gemoji/images/emoji/tiger.png'
p1038
sS'cold_sweat'
p1039
S'https://zulip.com/static/third/gemoji/images/emoji/cold_sweat.png'
p1040
sS'bulb'
p1041
S'https://zulip.com/static/third/gemoji/images/emoji/bulb.png'
p1042
sS'golf'
p1043
S'https://zulip.com/static/third/gemoji/images/emoji/golf.png'
p1044
sS'heart_eyes'
p1045
S'https://zulip.com/static/third/gemoji/images/emoji/heart_eyes.png'
p1046
sS'open_file_folder'
p1047
S'https://zulip.com/static/third/gemoji/images/emoji/open_file_folder.png'
p1048
sS'ant'
p1049
S'https://zulip.com/static/third/gemoji/images/emoji/ant.png'
p1050
sS'blowfish'
p1051
S'https://zulip.com/static/third/gemoji/images/emoji/blowfish.png'
p1052
sS'speech_balloon'
p1053
S'https://zulip.com/static/third/gemoji/images/emoji/speech_balloon.png'
p1054
sS'earth_africa'
p1055
S'https://zulip.com/static/third/gemoji/images/emoji/earth_africa.png'
p1056
sS'dart'
p1057
S'https://zulip.com/static/third/gemoji/images/emoji/dart.png'
p1058
sS'seedling'
p1059
S'https://zulip.com/static/third/gemoji/images/emoji/seedling.png'
p1060
sS'fearful'
p1061
S'https://zulip.com/static/third/gemoji/images/emoji/fearful.png'
p1062
sS'envelope_with_arrow'
p1063
S'https://zulip.com/static/third/gemoji/images/emoji/envelope_with_arrow.png'
p1064
sS'gem'
p1065
S'https://zulip.com/static/third/gemoji/images/emoji/gem.png'
p1066
sS'closed_umbrella'
p1067
S'https://zulip.com/static/third/gemoji/images/emoji/closed_umbrella.png'
p1068
sS'bikini'
p1069
S'https://zulip.com/static/third/gemoji/images/emoji/bikini.png'
p1070
sS'black_large_square'
p1071
S'https://zulip.com/static/third/gemoji/images/emoji/black_large_square.png'
p1072
sS'vertical_traffic_light'
p1073
S'https://zulip.com/static/third/gemoji/images/emoji/vertical_traffic_light.png'
p1074
sS'newspaper'
p1075
S'https://zulip.com/static/third/gemoji/images/emoji/newspaper.png'
p1076
sS'kissing'
p1077
S'https://zulip.com/static/third/gemoji/images/emoji/kissing.png'
p1078
sS'bathtub'
p1079
S'https://zulip.com/static/third/gemoji/images/emoji/bathtub.png'
p1080
sS'anchor'
p1081
S'https://zulip.com/static/third/gemoji/images/emoji/anchor.png'
p1082
sS'loop'
p1083
S'https://zulip.com/static/third/gemoji/images/emoji/loop.png'
p1084
sS'full_moon'
p1085
S'https://zulip.com/static/third/gemoji/images/emoji/full_moon.png'
p1086
sS'seven'
p1087
S'https://zulip.com/static/third/gemoji/images/emoji/seven.png'
p1088
sS'pound'
p1089
S'https://zulip.com/static/third/gemoji/images/emoji/pound.png'
p1090
sS'two_women_holding_hands'
p1091
S'https://zulip.com/static/third/gemoji/images/emoji/two_women_holding_hands.png'
p1092
sS'heavy_dollar_sign'
p1093
S'https://zulip.com/static/third/gemoji/images/emoji/heavy_dollar_sign.png'
p1094
sS'purse'
p1095
S'https://zulip.com/static/third/gemoji/images/emoji/purse.png'
p1096
sS'telephone'
p1097
S'https://zulip.com/static/third/gemoji/images/emoji/telephone.png'
p1098
sS'sleeping'
p1099
S'https://zulip.com/static/third/gemoji/images/emoji/sleeping.png'
p1100
sS'rice_scene'
p1101
S'https://zulip.com/static/third/gemoji/images/emoji/rice_scene.png'
p1102
sS'dizzy'
p1103
S'https://zulip.com/static/third/gemoji/images/emoji/dizzy.png'
p1104
sS'arrow_forward'
p1105
S'https://zulip.com/static/third/gemoji/images/emoji/arrow_forward.png'
p1106
sS'violin'
p1107
S'https://zulip.com/static/third/gemoji/images/emoji/violin.png'
p1108
sS'bullettrain_front'
p1109
S'https://zulip.com/static/third/gemoji/images/emoji/bullettrain_front.png'
p1110
sS'mouse'
p1111
S'https://zulip.com/static/third/gemoji/images/emoji/mouse.png'
p1112
sS'bookmark_tabs'
p1113
S'https://zulip.com/static/third/gemoji/images/emoji/bookmark_tabs.png'
p1114
sS'shirt'
p1115
S'https://zulip.com/static/third/gemoji/images/emoji/shirt.png'
p1116
sS'white_circle'
p1117
S'https://zulip.com/static/third/gemoji/images/emoji/white_circle.png'
p1118
sS'balloon'
p1119
S'https://zulip.com/static/third/gemoji/images/emoji/balloon.png'
p1120
sS'heart_decoration'
p1121
S'https://zulip.com/static/third/gemoji/images/emoji/heart_decoration.png'
p1122
sS'joy_cat'
p1123
S'https://zulip.com/static/third/gemoji/images/emoji/joy_cat.png'
p1124
sS'kimono'
p1125
S'https://zulip.com/static/third/gemoji/images/emoji/kimono.png'
p1126
sS'speaker'
p1127
S'https://zulip.com/static/third/gemoji/images/emoji/speaker.png'
p1128
sS'shit'
p1129
S'https://zulip.com/static/third/gemoji/images/emoji/shit.png'
p1130
sS'train2'
p1131
S'https://zulip.com/static/third/gemoji/images/emoji/train2.png'
p1132
sS'first_quarter_moon'
p1133
S'https://zulip.com/static/third/gemoji/images/emoji/first_quarter_moon.png'
p1134
sS'left_luggage'
p1135
S'https://zulip.com/static/third/gemoji/images/emoji/left_luggage.png'
p1136
sS'honeybee'
p1137
S'https://zulip.com/static/third/gemoji/images/emoji/honeybee.png'
p1138
sS'meat_on_bone'
p1139
S'https://zulip.com/static/third/gemoji/images/emoji/meat_on_bone.png'
p1140
sS'hamster'
p1141
S'https://zulip.com/static/third/gemoji/images/emoji/hamster.png'
p1142
sS'satellite'
p1143
S'https://zulip.com/static/third/gemoji/images/emoji/satellite.png'
p1144
sS'arrow_heading_up'
p1145
S'https://zulip.com/static/third/gemoji/images/emoji/arrow_heading_up.png'
p1146
sS'snail'
p1147
S'https://zulip.com/static/third/gemoji/images/emoji/snail.png'
p1148
sS'black_small_square'
p1149
S'https://zulip.com/static/third/gemoji/images/emoji/black_small_square.png'
p1150
sS'arrow_down_small'
p1151
S'https://zulip.com/static/third/gemoji/images/emoji/arrow_down_small.png'
p1152
sS'leopard'
p1153
S'https://zulip.com/static/third/gemoji/images/emoji/leopard.png'
p1154
sS'hand'
p1155
S'https://zulip.com/static/third/gemoji/images/emoji/hand.png'
p1156
sS'running'
p1157
S'https://zulip.com/static/third/gemoji/images/emoji/running.png'
p1158
sS'barber'
p1159
S'https://zulip.com/static/third/gemoji/images/emoji/barber.png'
p1160
sS'christmas_tree'
p1161
S'https://zulip.com/static/third/gemoji/images/emoji/christmas_tree.png'
p1162
sS'whale'
p1163
S'https://zulip.com/static/third/gemoji/images/emoji/whale.png'
p1164
sS'ice_cream'
p1165
S'https://zulip.com/static/third/gemoji/images/emoji/ice_cream.png'
p1166
sS'pensive'
p1167
S'https://zulip.com/static/third/gemoji/images/emoji/pensive.png'
p1168
sS'broken_heart'
p1169
S'https://zulip.com/static/third/gemoji/images/emoji/broken_heart.png'
p1170
sS'musical_score'
p1171
S'https://zulip.com/static/third/gemoji/images/emoji/musical_score.png'
p1172
sS'triangular_ruler'
p1173
S'https://zulip.com/static/third/gemoji/images/emoji/triangular_ruler.png'
p1174
sS'ocean'
p1175
S'https://zulip.com/static/third/gemoji/images/emoji/ocean.png'
p1176
sS'signal_strength'
p1177
S'https://zulip.com/static/third/gemoji/images/emoji/signal_strength.png'
p1178
sS'flags'
p1179
S'https://zulip.com/static/third/gemoji/images/emoji/flags.png'
p1180
sS'hearts'
p1181
S'https://zulip.com/static/third/gemoji/images/emoji/hearts.png'
p1182
sS'muscle'
p1183
S'https://zulip.com/static/third/gemoji/images/emoji/muscle.png'
p1184
sS'love_hotel'
p1185
S'https://zulip.com/static/third/gemoji/images/emoji/love_hotel.png'
p1186
sS'taxi'
p1187
S'https://zulip.com/static/third/gemoji/images/emoji/taxi.png'
p1188
sS'eyeglasses'
p1189
S'https://zulip.com/static/third/gemoji/images/emoji/eyeglasses.png'
p1190
sS'rocket'
p1191
S'https://zulip.com/static/third/gemoji/images/emoji/rocket.png'
p1192
sS'camel'
p1193
S'https://zulip.com/static/third/gemoji/images/emoji/camel.png'
p1194
sS'straight_ruler'
p1195
S'https://zulip.com/static/third/gemoji/images/emoji/straight_ruler.png'
p1196
sS'racehorse'
p1197
S'https://zulip.com/static/third/gemoji/images/emoji/racehorse.png'
p1198
sS'sleepy'
p1199
S'https://zulip.com/static/third/gemoji/images/emoji/sleepy.png'
p1200
sS'smirk'
p1201
S'https://zulip.com/static/third/gemoji/images/emoji/smirk.png'
p1202
sS'green_apple'
p1203
S'https://zulip.com/static/third/gemoji/images/emoji/green_apple.png'
p1204
sS'dromedary_camel'
p1205
S'https://zulip.com/static/third/gemoji/images/emoji/dromedary_camel.png'
p1206
sS'flashlight'
p1207
S'https://zulip.com/static/third/gemoji/images/emoji/flashlight.png'
p1208
sS'womans_hat'
p1209
S'https://zulip.com/static/third/gemoji/images/emoji/womans_hat.png'
p1210
sS'sandal'
p1211
S'https://zulip.com/static/third/gemoji/images/emoji/sandal.png'
p1212
sS'white_medium_square'
p1213
S'https://zulip.com/static/third/gemoji/images/emoji/white_medium_square.png'
p1214
sS'snowboarder'
p1215
S'https://zulip.com/static/third/gemoji/images/emoji/snowboarder.png'
p1216
sS'sunflower'
p1217
S'https://zulip.com/static/third/gemoji/images/emoji/sunflower.png'
p1218
sS'grey_exclamation'
p1219
S'https://zulip.com/static/third/gemoji/images/emoji/grey_exclamation.png'
p1220
sS'rose'
p1221
S'https://zulip.com/static/third/gemoji/images/emoji/rose.png'
p1222
sS'boot'
p1223
S'https://zulip.com/static/third/gemoji/images/emoji/boot.png'
p1224
sS'tropical_fish'
p1225
S'https://zulip.com/static/third/gemoji/images/emoji/tropical_fish.png'
p1226
sS'cherries'
p1227
S'https://zulip.com/static/third/gemoji/images/emoji/cherries.png'
p1228
sS'innocent'
p1229
S'https://zulip.com/static/third/gemoji/images/emoji/innocent.png'
p1230
sS'arrow_up_down'
p1231
S'https://zulip.com/static/third/gemoji/images/emoji/arrow_up_down.png'
p1232
sS'ski'
p1233
S'https://zulip.com/static/third/gemoji/images/emoji/ski.png'
p1234
sS'pill'
p1235
S'https://zulip.com/static/third/gemoji/images/emoji/pill.png'
p1236
sS'musical_keyboard'
p1237
S'https://zulip.com/static/third/gemoji/images/emoji/musical_keyboard.png'
p1238
sS'oncoming_bus'
p1239
S'https://zulip.com/static/third/gemoji/images/emoji/oncoming_bus.png'
p1240
sS'potable_water'
p1241
S'https://zulip.com/static/third/gemoji/images/emoji/potable_water.png'
p1242
sS'orange_book'
p1243
S'https://zulip.com/static/third/gemoji/images/emoji/orange_book.png'
p1244
sS'couple'
p1245
S'https://zulip.com/static/third/gemoji/images/emoji/couple.png'
p1246
sS'japanese_goblin'
p1247
S'https://zulip.com/static/third/gemoji/images/emoji/japanese_goblin.png'
p1248
sS'inbox_tray'
p1249
S'https://zulip.com/static/third/gemoji/images/emoji/inbox_tray.png'
p1250
sS'clock1'
p1251
S'https://zulip.com/static/third/gemoji/images/emoji/clock1.png'
p1252
sS'five'
p1253
S'https://zulip.com/static/third/gemoji/images/emoji/five.png'
p1254
sS'doughnut'
p1255
S'https://zulip.com/static/third/gemoji/images/emoji/doughnut.png'
p1256
sS'disappointed'
p1257
S'https://zulip.com/static/third/gemoji/images/emoji/disappointed.png'
p1258
sS'grin'
p1259
S'https://zulip.com/static/third/gemoji/images/emoji/grin.png'
p1260
sS'womans_clothes'
p1261
S'https://zulip.com/static/third/gemoji/images/emoji/womans_clothes.png'
p1262
sS'gift'
p1263
S'https://zulip.com/static/third/gemoji/images/emoji/gift.png'
p1264
sS'bangbang'
p1265
S'https://zulip.com/static/third/gemoji/images/emoji/bangbang.png'
p1266
sS'stuck_out_tongue_winking_eye'
p1267
S'https://zulip.com/static/third/gemoji/images/emoji/stuck_out_tongue_winking_eye.png'
p1268
sS'candy'
p1269
S'https://zulip.com/static/third/gemoji/images/emoji/candy.png'
p1270
sS'snowflake'
p1271
S'https://zulip.com/static/third/gemoji/images/emoji/snowflake.png'
p1272
sS'arrows_counterclockwise'
p1273
S'https://zulip.com/static/third/gemoji/images/emoji/arrows_counterclockwise.png'
p1274
sS'two_men_holding_hands'
p1275
S'https://zulip.com/static/third/gemoji/images/emoji/two_men_holding_hands.png'
p1276
sS'hotsprings'
p1277
S'https://zulip.com/static/third/gemoji/images/emoji/hotsprings.png'
p1278
sS'laughing'
p1279
S'https://zulip.com/static/third/gemoji/images/emoji/laughing.png'
p1280
sS'bamboo'
p1281
S'https://zulip.com/static/third/gemoji/images/emoji/bamboo.png'
p1282
sS'clap'
p1283
S'https://zulip.com/static/third/gemoji/images/emoji/clap.png'
p1284
sS'outbox_tray'
p1285
S'https://zulip.com/static/third/gemoji/images/emoji/outbox_tray.png'
p1286
sS'left_right_arrow'
p1287
S'https://zulip.com/static/third/gemoji/images/emoji/left_right_arrow.png'
p1288
sS'japanese_castle'
p1289
S'https://zulip.com/static/third/gemoji/images/emoji/japanese_castle.png'
p1290
sS'waning_gibbous_moon'
p1291
S'https://zulip.com/static/third/gemoji/images/emoji/waning_gibbous_moon.png'
p1292
sS'crown'
p1293
S'https://zulip.com/static/third/gemoji/images/emoji/crown.png'
p1294
sS'back'
p1295
S'https://zulip.com/static/third/gemoji/images/emoji/back.png'
p1296
sS'phone'
p1297
S'https://zulip.com/static/third/gemoji/images/emoji/phone.png'
p1298
sS'sparkling_heart'
p1299
S'https://zulip.com/static/third/gemoji/images/emoji/sparkling_heart.png'
p1300
sS'clubs'
p1301
S'https://zulip.com/static/third/gemoji/images/emoji/clubs.png'
p1302
sS'repeat'
p1303
S'https://zulip.com/static/third/gemoji/images/emoji/repeat.png'
p1304
sS'person_with_pouting_face'
p1305
S'https://zulip.com/static/third/gemoji/images/emoji/person_with_pouting_face.png'
p1306
sS'arrow_right_hook'
p1307
S'https://zulip.com/static/third/gemoji/images/emoji/arrow_right_hook.png'
p1308
sS'bento'
p1309
S'https://zulip.com/static/third/gemoji/images/emoji/bento.png'
p1310
sS'moon'
p1311
S'https://zulip.com/static/third/gemoji/images/emoji/moon.png'
p1312
sS'e-mail'
p1313
S'https://zulip.com/static/third/gemoji/images/emoji/e-mail.png'
p1314
sS'tanabata_tree'
p1315
S'https://zulip.com/static/third/gemoji/images/emoji/tanabata_tree.png'
p1316
sS'dango'
p1317
S'https://zulip.com/static/third/gemoji/images/emoji/dango.png'
p1318
sS'large_orange_diamond'
p1319
S'https://zulip.com/static/third/gemoji/images/emoji/large_orange_diamond.png'
p1320
sS'heavy_minus_sign'
p1321
S'https://zulip.com/static/third/gemoji/images/emoji/heavy_minus_sign.png'
p1322
sS'nose'
p1323
S'https://zulip.com/static/third/gemoji/images/emoji/nose.png'
p1324
sS'point_up'
p1325
S'https://zulip.com/static/third/gemoji/images/emoji/point_up.png'
p1326
sS'football'
p1327
S'https://zulip.com/static/third/gemoji/images/emoji/football.png'
p1328
sS'facepunch'
p1329
S'https://zulip.com/static/third/gemoji/images/emoji/facepunch.png'
p1330
sS'zzz'
p1331
S'https://zulip.com/static/third/gemoji/images/emoji/zzz.png'
p1332
sS'corn'
p1333
S'https://zulip.com/static/third/gemoji/images/emoji/corn.png'
p1334
sS'surfer'
p1335
S'https://zulip.com/static/third/gemoji/images/emoji/surfer.png'
p1336
sS'kissing_smiling_eyes'
p1337
S'https://zulip.com/static/third/gemoji/images/emoji/kissing_smiling_eyes.png'
p1338
sS'fish_cake'
p1339
S'https://zulip.com/static/third/gemoji/images/emoji/fish_cake.png'
p1340
sS'snowman'
p1341
S'https://zulip.com/static/third/gemoji/images/emoji/snowman.png'
p1342
sS'stew'
p1343
S'https://zulip.com/static/third/gemoji/images/emoji/stew.png'
p1344
sS'lips'
p1345
S'https://zulip.com/static/third/gemoji/images/emoji/lips.png'
p1346
sS'thumbsdown'
p1347
S'https://zulip.com/static/third/gemoji/images/emoji/thumbsdown.png'
p1348
sS'kissing_heart'
p1349
S'https://zulip.com/static/third/gemoji/images/emoji/kissing_heart.png'
p1350
sS'no_pedestrians'
p1351
S'https://zulip.com/static/third/gemoji/images/emoji/no_pedestrians.png'
p1352
sS'eight_spoked_asterisk'
p1353
S'https://zulip.com/static/third/gemoji/images/emoji/eight_spoked_asterisk.png'
p1354
sS'trophy'
p1355
S'https://zulip.com/static/third/gemoji/images/emoji/trophy.png'
p1356
sS'person_frowning'
p1357
S'https://zulip.com/static/third/gemoji/images/emoji/person_frowning.png'
p1358
sS'city_sunrise'
p1359
S'https://zulip.com/static/third/gemoji/images/emoji/city_sunrise.png'
p1360
sS'package'
p1361
S'https://zulip.com/static/third/gemoji/images/emoji/package.png'
p1362
sS'arrow_backward'
p1363
S'https://zulip.com/static/third/gemoji/images/emoji/arrow_backward.png'
p1364
sS'school_satchel'
p1365
S'https://zulip.com/static/third/gemoji/images/emoji/school_satchel.png'
p1366
sS'zulip'
p1367
S'https://zulip.com/static/third/gemoji/images/emoji/zulip.png'
p1368
sS'chart_with_downwards_trend'
p1369
S'https://zulip.com/static/third/gemoji/images/emoji/chart_with_downwards_trend.png'
p1370
sS'clock10'
p1371
S'https://zulip.com/static/third/gemoji/images/emoji/clock10.png'
p1372
sS'clock11'
p1373
S'https://zulip.com/static/third/gemoji/images/emoji/clock11.png'
p1374
sS'no_bell'
p1375
S'https://zulip.com/static/third/gemoji/images/emoji/no_bell.png'
p1376
sS'sweat'
p1377
S'https://zulip.com/static/third/gemoji/images/emoji/sweat.png'
p1378
sS'mountain_railway'
p1379
S'https://zulip.com/static/third/gemoji/images/emoji/mountain_railway.png'
p1380
sS'tongue'
p1381
S'https://zulip.com/static/third/gemoji/images/emoji/tongue.png'
p1382
sS'womens'
p1383
S'https://zulip.com/static/third/gemoji/images/emoji/womens.png'
p1384
sS'baby_symbol'
p1385
S'https://zulip.com/static/third/gemoji/images/emoji/baby_symbol.png'
p1386
sS'hospital'
p1387
S'https://zulip.com/static/third/gemoji/images/emoji/hospital.png'
p1388
sS'baby_chick'
p1389
S'https://zulip.com/static/third/gemoji/images/emoji/baby_chick.png'
p1390
sS'turtle'
p1391
S'https://zulip.com/static/third/gemoji/images/emoji/turtle.png'
p1392
sS'lollipop'
p1393
S'https://zulip.com/static/third/gemoji/images/emoji/lollipop.png'
p1394
sS'black_square_button'
p1395
S'https://zulip.com/static/third/gemoji/images/emoji/black_square_button.png'
p1396
sS'do_not_litter'
p1397
S'https://zulip.com/static/third/gemoji/images/emoji/do_not_litter.png'
p1398
sS'wind_chime'
p1399
S'https://zulip.com/static/third/gemoji/images/emoji/wind_chime.png'
p1400
sS'waxing_crescent_moon'
p1401
S'https://zulip.com/static/third/gemoji/images/emoji/waxing_crescent_moon.png'
p1402
sS'full_moon_with_face'
p1403
S'https://zulip.com/static/third/gemoji/images/emoji/full_moon_with_face.png'
p1404
sS'bath'
p1405
S'https://zulip.com/static/third/gemoji/images/emoji/bath.png'
p1406
sS'sos'
p1407
S'https://zulip.com/static/third/gemoji/images/emoji/sos.png'
p1408
sS'frog'
p1409
S'https://zulip.com/static/third/gemoji/images/emoji/frog.png'
p1410
sS'syringe'
p1411
S'https://zulip.com/static/third/gemoji/images/emoji/syringe.png'
p1412
sS'last_quarter_moon'
p1413
S'https://zulip.com/static/third/gemoji/images/emoji/last_quarter_moon.png'
p1414
sS'tada'
p1415
S'https://zulip.com/static/third/gemoji/images/emoji/tada.png'
p1416
sS'flushed'
p1417
S'https://zulip.com/static/third/gemoji/images/emoji/flushed.png'
p1418
sS'custard'
p1419
S'https://zulip.com/static/third/gemoji/images/emoji/custard.png'
p1420
sS'rowboat'
p1421
S'https://zulip.com/static/third/gemoji/images/emoji/rowboat.png'
p1422
sS'heavy_multiplication_x'
p1423
S'https://zulip.com/static/third/gemoji/images/emoji/heavy_multiplication_x.png'
p1424
sS'white_check_mark'
p1425
S'https://zulip.com/static/third/gemoji/images/emoji/white_check_mark.png'
p1426
sS'tennis'
p1427
S'https://zulip.com/static/third/gemoji/images/emoji/tennis.png'
p1428
sS'question'
p1429
S'https://zulip.com/static/third/gemoji/images/emoji/question.png'
p1430
sS'secret'
p1431
S'https://zulip.com/static/third/gemoji/images/emoji/secret.png'
p1432
sS'stars'
p1433
S'https://zulip.com/static/third/gemoji/images/emoji/stars.png'
p1434
sS'iphone'
p1435
S'https://zulip.com/static/third/gemoji/images/emoji/iphone.png'
p1436
sS'bus'
p1437
S'https://zulip.com/static/third/gemoji/images/emoji/bus.png'
p1438
sS'relaxed'
p1439
S'https://zulip.com/static/third/gemoji/images/emoji/relaxed.png'
p1440
sS'fireworks'
p1441
S'https://zulip.com/static/third/gemoji/images/emoji/fireworks.png'
p1442
sS'cloud'
p1443
S'https://zulip.com/static/third/gemoji/images/emoji/cloud.png'
p1444
sS'construction'
p1445
S'https://zulip.com/static/third/gemoji/images/emoji/construction.png'
p1446
sS'black_circle'
p1447
S'https://zulip.com/static/third/gemoji/images/emoji/black_circle.png'
p1448
sS'fallen_leaf'
p1449
S'https://zulip.com/static/third/gemoji/images/emoji/fallen_leaf.png'
p1450
sS'astonished'
p1451
S'https://zulip.com/static/third/gemoji/images/emoji/astonished.png'
p1452
sS'ear'
p1453
S'https://zulip.com/static/third/gemoji/images/emoji/ear.png'
p1454
sS'radio_button'
p1455
S'https://zulip.com/static/third/gemoji/images/emoji/radio_button.png'
p1456
sS'bug'
p1457
S'https://zulip.com/static/third/gemoji/images/emoji/bug.png'
p1458
sS'penguin'
p1459
S'https://zulip.com/static/third/gemoji/images/emoji/penguin.png'
p1460
sS'arrow_heading_down'
p1461
S'https://zulip.com/static/third/gemoji/images/emoji/arrow_heading_down.png'
p1462
sS'congratulations'
p1463
S'https://zulip.com/static/third/gemoji/images/emoji/congratulations.png'
p1464
sS'skull'
p1465
S'https://zulip.com/static/third/gemoji/images/emoji/skull.png'
p1466
sS'bride_with_veil'
p1467
S'https://zulip.com/static/third/gemoji/images/emoji/bride_with_veil.png'
p1468
sS'whale2'
p1469
S'https://zulip.com/static/third/gemoji/images/emoji/whale2.png'
p1470
sS'fries'
p1471
S'https://zulip.com/static/third/gemoji/images/emoji/fries.png'
p1472
sS'grey_question'
p1473
S'https://zulip.com/static/third/gemoji/images/emoji/grey_question.png'
p1474
sS'arrow_upper_left'
p1475
S'https://zulip.com/static/third/gemoji/images/emoji/arrow_upper_left.png'
p1476
sS'strawberry'
p1477
S'https://zulip.com/static/third/gemoji/images/emoji/strawberry.png'
p1478
sS'non-potable_water'
p1479
S'https://zulip.com/static/third/gemoji/images/emoji/non-potable_water.png'
p1480
sS'athletic_shoe'
p1481
S'https://zulip.com/static/third/gemoji/images/emoji/athletic_shoe.png'
p1482
sS'star2'
p1483
S'https://zulip.com/static/third/gemoji/images/emoji/star2.png'
p1484
sS'cake'
p1485
S'https://zulip.com/static/third/gemoji/images/emoji/cake.png'
p1486
sS'arrow_lower_left'
p1487
S'https://zulip.com/static/third/gemoji/images/emoji/arrow_lower_left.png'
p1488
sS'gemini'
p1489
S'https://zulip.com/static/third/gemoji/images/emoji/gemini.png'
p1490
sS'arrow_double_up'
p1491
S'https://zulip.com/static/third/gemoji/images/emoji/arrow_double_up.png'
p1492
sS'toilet'
p1493
S'https://zulip.com/static/third/gemoji/images/emoji/toilet.png'
p1494
sS'fist'
p1495
S'https://zulip.com/static/third/gemoji/images/emoji/fist.png'
p1496
sS'mortar_board'
p1497
S'https://zulip.com/static/third/gemoji/images/emoji/mortar_board.png'
p1498
sS'cinema'
p1499
S'https://zulip.com/static/third/gemoji/images/emoji/cinema.png'
p1500
sS'hatched_chick'
p1501
S'https://zulip.com/static/third/gemoji/images/emoji/hatched_chick.png'
p1502
sS'triangular_flag_on_post'
p1503
S'https://zulip.com/static/third/gemoji/images/emoji/triangular_flag_on_post.png'
p1504
sS'black_nib'
p1505
S'https://zulip.com/static/third/gemoji/images/emoji/black_nib.png'
p1506
sS'pig'
p1507
S'https://zulip.com/static/third/gemoji/images/emoji/pig.png'
p1508
sS'floppy_disk'
p1509
S'https://zulip.com/static/third/gemoji/images/emoji/floppy_disk.png'
p1510
sS'tshirt'
p1511
S'https://zulip.com/static/third/gemoji/images/emoji/tshirt.png'
p1512
sS'warning'
p1513
S'https://zulip.com/static/third/gemoji/images/emoji/warning.png'
p1514
sS'ship'
p1515
S'https://zulip.com/static/third/gemoji/images/emoji/ship.png'
p1516
sS'girl'
p1517
S'https://zulip.com/static/third/gemoji/images/emoji/girl.png'
p1518
sS'telephone_receiver'
p1519
S'https://zulip.com/static/third/gemoji/images/emoji/telephone_receiver.png'
p1520
sS'rainbow'
p1521
S'https://zulip.com/static/third/gemoji/images/emoji/rainbow.png'
p1522
sS'movie_camera'
p1523
S'https://zulip.com/static/third/gemoji/images/emoji/movie_camera.png'
p1524
sS'lemon'
p1525
S'https://zulip.com/static/third/gemoji/images/emoji/lemon.png'
p1526
sS'arrow_double_down'
p1527
S'https://zulip.com/static/third/gemoji/images/emoji/arrow_double_down.png'
p1528
sS'peach'
p1529
S'https://zulip.com/static/third/gemoji/images/emoji/peach.png'
p1530
sS'arrow_upper_right'
p1531
S'https://zulip.com/static/third/gemoji/images/emoji/arrow_upper_right.png'
p1532
sS'steam_locomotive'
p1533
S'https://zulip.com/static/third/gemoji/images/emoji/steam_locomotive.png'
p1534
sS'book'
p1535
S'https://zulip.com/static/third/gemoji/images/emoji/book.png'
p1536
sS'clock1130'
p1537
S'https://zulip.com/static/third/gemoji/images/emoji/clock1130.png'
p1538
sS'boom'
p1539
S'https://zulip.com/static/third/gemoji/images/emoji/boom.png'
p1540
sS'clock1030'
p1541
S'https://zulip.com/static/third/gemoji/images/emoji/clock1030.png'
p1542
sS'heart_eyes_cat'
p1543
S'https://zulip.com/static/third/gemoji/images/emoji/heart_eyes_cat.png'
p1544
sS'bust_in_silhouette'
p1545
S'https://zulip.com/static/third/gemoji/images/emoji/bust_in_silhouette.png'
p1546
sS'star'
p1547
S'https://zulip.com/static/third/gemoji/images/emoji/star.png'
p1548
sS'rabbit2'
p1549
S'https://zulip.com/static/third/gemoji/images/emoji/rabbit2.png'
p1550
sS'tangerine'
p1551
S'https://zulip.com/static/third/gemoji/images/emoji/tangerine.png'
p1552
sS'footprints'
p1553
S'https://zulip.com/static/third/gemoji/images/emoji/footprints.png'
p1554
sS'pineapple'
p1555
S'https://zulip.com/static/third/gemoji/images/emoji/pineapple.png'
p1556
sS'pear'
p1557
S'https://zulip.com/static/third/gemoji/images/emoji/pear.png'
p1558
sS'taurus'
p1559
S'https://zulip.com/static/third/gemoji/images/emoji/taurus.png'
p1560
sS'articulated_lorry'
p1561
S'https://zulip.com/static/third/gemoji/images/emoji/articulated_lorry.png'
p1562
sS'no_entry_sign'
p1563
S'https://zulip.com/static/third/gemoji/images/emoji/no_entry_sign.png'
p1564
sS'police_car'
p1565
S'https://zulip.com/static/third/gemoji/images/emoji/police_car.png'
p1566
sS'smiley'
p1567
S'https://zulip.com/static/third/gemoji/images/emoji/smiley.png'
p1568
sS'black_medium_square'
p1569
S'https://zulip.com/static/third/gemoji/images/emoji/black_medium_square.png'
p1570
sS'closed_book'
p1571
S'https://zulip.com/static/third/gemoji/images/emoji/closed_book.png'
p1572
sS'lipstick'
p1573
S'https://zulip.com/static/third/gemoji/images/emoji/lipstick.png'
p1574
sS'ghost'
p1575
S'https://zulip.com/static/third/gemoji/images/emoji/ghost.png'
p1576
sS'droplet'
p1577
S'https://zulip.com/static/third/gemoji/images/emoji/droplet.png'
p1578
sS'rage'
p1579
S'https://zulip.com/static/third/gemoji/images/emoji/rage.png'
p1580
sS'spades'
p1581
S'https://zulip.com/static/third/gemoji/images/emoji/spades.png'
p1582
sS'vibration_mode'
p1583
S'https://zulip.com/static/third/gemoji/images/emoji/vibration_mode.png'
p1584
sS'expressionless'
p1585
S'https://zulip.com/static/third/gemoji/images/emoji/expressionless.png'
p1586
sS'dvd'
p1587
S'https://zulip.com/static/third/gemoji/images/emoji/dvd.png'
p1588
sS'mask'
p1589
S'https://zulip.com/static/third/gemoji/images/emoji/mask.png'
p1590
sS'mag_right'
p1591
S'https://zulip.com/static/third/gemoji/images/emoji/mag_right.png'
p1592
sS'hushed'
p1593
S'https://zulip.com/static/third/gemoji/images/emoji/hushed.png'
p1594
sS'sunrise_over_mountains'
p1595
S'https://zulip.com/static/third/gemoji/images/emoji/sunrise_over_mountains.png'
p1596
sS'partly_sunny'
p1597
S'https://zulip.com/static/third/gemoji/images/emoji/partly_sunny.png'
p1598
sS'scroll'
p1599
S'https://zulip.com/static/third/gemoji/images/emoji/scroll.png'
p1600
s.